target datalayout = "e-m:e-p270:32:32-p271:32:32-p272:64:64-i64:64-i128:128-f80:128-n8:16:32:64-S128"
target triple = "x86_64-pc-linux-gnu"

%struct.acttab = type { i32, i32, ptr, ptr, i32, i32, i32, i32, i32, i32, i32 }

@stderr = external global ptr, align 8
@.str = private unnamed_addr constant [44 x i8] c"Unable to allocate memory for a new acttab.\00", align 1

; Function Attrs: alwaysinline nounwind
define internal ptr @memset.inline(ptr %0, i32 %1, i64 %2) #7 {
  %4 = alloca ptr, align 8
  %5 = alloca i32, align 4
  %6 = alloca i64, align 8
  store ptr %0, ptr %4, align 8
  store i32 %1, ptr %5, align 4
  store i64 %2, ptr %6, align 8
  %7 = load ptr, ptr %4, align 8
  %8 = load i32, ptr %5, align 4
  %9 = load i64, ptr %6, align 8
  %10 = load ptr, ptr %4, align 8
  %11 = call i64 @llvm.objectsize.i64.p0(ptr %10, i1 false, i1 true, i1 true)
  %12 = call ptr @__memset_chk(ptr noundef %7, i32 noundef %8, i64 noundef %9, i64 noundef %11) #18
  ret ptr %12
}

; Function Attrs: null_pointer_is_valid sspstrong uwtable
define hidden ptr @acttab_alloc(i32 noundef %0, i32 noundef %1) #0 {
  %3 = alloca i32, align 4
  %4 = alloca i32, align 4
  %5 = alloca ptr, align 8
  store i32 %0, ptr %3, align 4
  store i32 %1, ptr %4, align 4
  call void @llvm.lifetime.start.p0(i64 8, ptr %5) #18
  %6 = call noalias ptr @calloc(i64 noundef 1, i64 noundef 56) #19
  store ptr %6, ptr %5, align 8
  %7 = load ptr, ptr %5, align 8
  %8 = icmp eq ptr %7, null
  br i1 %8, label %9, label %12

9:                                                ; preds = %2
  %10 = load ptr, ptr @stderr, align 8
  %11 = call i32 (ptr, i32, ptr, ...) @__fprintf_chk(ptr noundef %10, i32 noundef 2, ptr noundef @.str)
  call void @exit(i32 noundef 1) #20
  unreachable

12:                                               ; preds = %2
  %13 = load ptr, ptr %5, align 8
  %14 = call ptr @memset.inline(ptr noundef %13, i32 noundef 0, i64 noundef 56) #18
  %15 = load i32, ptr %3, align 4
  %16 = load ptr, ptr %5, align 8
  %17 = getelementptr inbounds nuw %struct.acttab, ptr %16, i32 0, i32 10
  store i32 %15, ptr %17, align 8
  %18 = load i32, ptr %4, align 4
  %19 = load ptr, ptr %5, align 8
  %20 = getelementptr inbounds nuw %struct.acttab, ptr %19, i32 0, i32 9
  store i32 %18, ptr %20, align 4
  %21 = load ptr, ptr %5, align 8
  call void @llvm.lifetime.end.p0(i64 8, ptr %5) #18
  ret ptr %21
}