; Function Attrs: null_pointer_is_valid sspstrong uwtable
define hidden noalias nonnull ptr @acttab_alloc(i32 noundef %0, i32 noundef %1) local_unnamed_addr #0 {
  %3 = tail call noalias dereferenceable_or_null(56) ptr @calloc(i64 noundef 1, i64 noundef 56) #40
  %4 = icmp eq ptr %3, null
  br i1 %4, label %5, label %8

5:                                                ; preds = %2
  %6 = load ptr, ptr @stderr, align 8
  %7 = tail call i32 (ptr, i32, ptr, ...) @__fprintf_chk(ptr noundef %6, i32 noundef 2, ptr noundef nonnull @.str)
  tail call void @exit(i32 noundef 1) #41
  unreachable

8:                                                ; preds = %2
  %9 = getelementptr inbounds nuw i8, ptr %3, i64 48
  store i32 %0, ptr %9, align 8
  %10 = getelementptr inbounds nuw i8, ptr %3, i64 44
  store i32 %1, ptr %10, align 4
  ret ptr %3
}